target datalayout = "e-m:e-p270:32:32-p271:32:32-p272:64:64-i64:64-i128:128-f80:128-n8:16:32:64-S128"
target triple = "x86_64-pc-linux-gnu"

%struct._header_field_info = type { ptr, ptr, i32, i32, ptr, i64, ptr, i32, i32, i32, i32, ptr }

@.str.30 = private unnamed_addr constant [41 x i8] c"%s:%u: field %s is not of type FT_UINT64\00", align 1
@.str.31 = private unnamed_addr constant [29 x i8] c"epan/dissectors/packet-rpc.c\00", align 1

; Function Attrs: null_pointer_is_valid sspstrong uwtable
define i32 @dissect_rpc_uint64(ptr noundef %0, ptr noundef %1, i32 noundef %2, i32 noundef %3) #0 {
  %5 = alloca ptr, align 8
  %6 = alloca ptr, align 8
  %7 = alloca i32, align 4
  %8 = alloca i32, align 4
  %9 = alloca ptr, align 8
  store ptr %0, ptr %5, align 8
  store ptr %1, ptr %6, align 8
  store i32 %2, ptr %7, align 4
  store i32 %3, ptr %8, align 4
  call void @llvm.lifetime.start.p0(i64 8, ptr %9) #18
  %10 = load i32, ptr %7, align 4
  %11 = call ptr @proto_registrar_get_nth(i32 noundef %10)
  store ptr %11, ptr %9, align 8
  %12 = load ptr, ptr %9, align 8
  %13 = getelementptr inbounds nuw %struct._header_field_info, ptr %12, i32 0, i32 2
  %14 = load i32, ptr %13, align 8
  %15 = icmp eq i32 %14, 11
  br i1 %15, label %16, label %17

16:                                               ; preds = %4
  br label %22

17:                                               ; preds = %4
  %18 = load ptr, ptr %9, align 8
  %19 = getelementptr inbounds nuw %struct._header_field_info, ptr %18, i32 0, i32 1
  %20 = load ptr, ptr %19, align 8
  call void (ptr, ...) @proto_report_dissector_bug(ptr noundef @.str.30, ptr noundef @.str.31, i32 noundef 678, ptr noundef %20) #21
  unreachable

21:                                               ; No predecessors!
  br label %22

22:                                               ; preds = %21, %16
  %23 = load ptr, ptr %6, align 8
  %24 = load i32, ptr %7, align 4
  %25 = load ptr, ptr %5, align 8
  %26 = load i32, ptr %8, align 4
  %27 = call ptr @proto_tree_add_item(ptr noundef %23, i32 noundef %24, ptr noundef %25, i32 noundef %26, i32 noundef 8, i32 noundef 0)
  %28 = load i32, ptr %8, align 4
  %29 = add i32 %28, 8
  call void @llvm.lifetime.end.p0(i64 8, ptr %9) #18
  ret i32 %29
}