; Function Attrs: null_pointer_is_valid sspstrong uwtable
define noundef i32 @dissect_rpc_uint64(ptr noundef %0, ptr noundef %1, i32 noundef %2, i32 noundef %3) local_unnamed_addr #0 {
  %5 = tail call ptr @proto_registrar_get_nth(i32 noundef %2)
  %6 = getelementptr inbounds nuw i8, ptr %5, i64 16
  %7 = load i32, ptr %6, align 8
  %8 = icmp eq i32 %7, 11
  br i1 %8, label %12, label %9

9:                                                ; preds = %4
  %10 = getelementptr inbounds nuw i8, ptr %5, i64 8
  %11 = load ptr, ptr %10, align 8
  tail call void (ptr, ...) @proto_report_dissector_bug(ptr noundef nonnull @.str.30, ptr noundef nonnull @.str.31, i32 noundef 678, ptr noundef %11) #19
  unreachable

12:                                               ; preds = %4
  %13 = tail call ptr @proto_tree_add_item(ptr noundef %1, i32 noundef %2, ptr noundef %0, i32 noundef %3, i32 noundef 8, i32 noundef 0)
  %14 = add i32 %3, 8
  ret i32 %14
}